target datalayout = "e-m:e-p270:32:32-p271:32:32-p272:64:64-i64:64-i128:128-f80:128-n8:16:32:64-S128"
target triple = "x86_64-pc-linux-gnu"

%"struct.cv::softdouble" = type { i64 }

; Function Attrs: mustprogress nounwind uwtable
define internal void @_ZN2cvL10raiseFlagsEh(i8 noundef zeroext %0) #1 {
  %2 = alloca i8, align 1
  store i8 %0, ptr %2, align 1
  ret void
}

; Function Attrs: mustprogress nounwind uwtable
define internal noundef zeroext i1 @_ZN2cvL6f64_ltENS_10softdoubleES0_(ptr noundef %0, ptr noundef %1) #1 {
  %3 = alloca i1, align 1
  %4 = alloca ptr, align 8
  %5 = alloca ptr, align 8
  %6 = alloca i64, align 8
  %7 = alloca i64, align 8
  %8 = alloca i8, align 1
  %9 = alloca i8, align 1
  store ptr %0, ptr %4, align 8
  store ptr %1, ptr %5, align 8
  %10 = getelementptr inbounds %"struct.cv::softdouble", ptr %0, i32 0, i32 0
  %11 = load i64, ptr %10, align 8
  store i64 %11, ptr %6, align 8
  %12 = getelementptr inbounds %"struct.cv::softdouble", ptr %1, i32 0, i32 0
  %13 = load i64, ptr %12, align 8
  store i64 %13, ptr %7, align 8
  %14 = load i64, ptr %6, align 8
  %15 = xor i64 %14, -1
  %16 = and i64 %15, 9218868437227405312
  %17 = icmp eq i64 %16, 0
  br i1 %17, label %18, label %22

18:                                               ; preds = %2
  %19 = load i64, ptr %6, align 8
  %20 = and i64 %19, 4503599627370495
  %21 = icmp ne i64 %20, 0
  br i1 %21, label %31, label %22

22:                                               ; preds = %18, %2
  %23 = load i64, ptr %7, align 8
  %24 = xor i64 %23, -1
  %25 = and i64 %24, 9218868437227405312
  %26 = icmp eq i64 %25, 0
  br i1 %26, label %27, label %32

27:                                               ; preds = %22
  %28 = load i64, ptr %7, align 8
  %29 = and i64 %28, 4503599627370495
  %30 = icmp ne i64 %29, 0
  br i1 %30, label %31, label %32

31:                                               ; preds = %27, %18
  call void @_ZN2cvL10raiseFlagsEh(i8 noundef zeroext 16)
  store i1 false, ptr %3, align 1
  br label %77

32:                                               ; preds = %27, %22
  %33 = load i64, ptr %6, align 8
  %34 = lshr i64 %33, 63
  %35 = icmp ne i64 %34, 0
  %36 = zext i1 %35 to i8
  store i8 %36, ptr %8, align 1
  %37 = load i64, ptr %7, align 8
  %38 = lshr i64 %37, 63
  %39 = icmp ne i64 %38, 0
  %40 = zext i1 %39 to i8
  store i8 %40, ptr %9, align 1
  %41 = load i8, ptr %8, align 1
  %42 = trunc i8 %41 to i1
  %43 = zext i1 %42 to i32
  %44 = load i8, ptr %9, align 1
  %45 = trunc i8 %44 to i1
  %46 = zext i1 %45 to i32
  %47 = icmp ne i32 %43, %46
  br i1 %47, label %48, label %59

48:                                               ; preds = %32
  %49 = load i8, ptr %8, align 1
  %50 = trunc i8 %49 to i1
  br i1 %50, label %51, label %57

51:                                               ; preds = %48
  %52 = load i64, ptr %6, align 8
  %53 = load i64, ptr %7, align 8
  %54 = or i64 %52, %53
  %55 = and i64 %54, 9223372036854775807
  %56 = icmp ne i64 %55, 0
  br label %57

57:                                               ; preds = %51, %48
  %58 = phi i1 [ false, %48 ], [ %56, %51 ]
  br label %75

59:                                               ; preds = %32
  %60 = load i64, ptr %6, align 8
  %61 = load i64, ptr %7, align 8
  %62 = icmp ne i64 %60, %61
  br i1 %62, label %63, label %73

63:                                               ; preds = %59
  %64 = load i8, ptr %8, align 1
  %65 = trunc i8 %64 to i1
  %66 = zext i1 %65 to i32
  %67 = load i64, ptr %6, align 8
  %68 = load i64, ptr %7, align 8
  %69 = icmp ult i64 %67, %68
  %70 = zext i1 %69 to i32
  %71 = xor i32 %66, %70
  %72 = icmp ne i32 %71, 0
  br label %73

73:                                               ; preds = %63, %59
  %74 = phi i1 [ false, %59 ], [ %72, %63 ]
  br label %75

75:                                               ; preds = %73, %57
  %76 = phi i1 [ %58, %57 ], [ %74, %73 ]
  store i1 %76, ptr %3, align 1
  br label %77

77:                                               ; preds = %75, %31
  %78 = load i1, ptr %3, align 1
  ret i1 %78
}

; Function Attrs: mustprogress nounwind uwtable
define linkonce_odr hidden void @_ZN2cv10softdoubleC2ERKS0_(ptr noundef nonnull align 8 dereferenceable(8) %0, ptr noundef nonnull align 8 dereferenceable(8) %1) unnamed_addr #1 comdat align 2 {
  %3 = alloca ptr, align 8
  %4 = alloca ptr, align 8
  store ptr %0, ptr %3, align 8
  store ptr %1, ptr %4, align 8
  %5 = load ptr, ptr %3, align 8
  %6 = load ptr, ptr %4, align 8
  %7 = getelementptr inbounds %"struct.cv::softdouble", ptr %6, i32 0, i32 0
  %8 = load i64, ptr %7, align 8
  %9 = getelementptr inbounds %"struct.cv::softdouble", ptr %5, i32 0, i32 0
  store i64 %8, ptr %9, align 8
  ret void
}

; Function Attrs: mustprogress uwtable
define noundef zeroext i1 @_ZNK2cv10softdoublegtERKS0_(ptr noundef nonnull align 8 dereferenceable(8) %0, ptr noundef nonnull align 8 dereferenceable(8) %1) #0 align 2 {
  %3 = alloca ptr, align 8
  %4 = alloca ptr, align 8
  %5 = alloca %"struct.cv::softdouble", align 8
  %6 = alloca %"struct.cv::softdouble", align 8
  store ptr %0, ptr %3, align 8
  store ptr %1, ptr %4, align 8
  %7 = load ptr, ptr %3, align 8
  %8 = load ptr, ptr %4, align 8
  call void @_ZN2cv10softdoubleC2ERKS0_(ptr noundef nonnull align 8 dereferenceable(8) %5, ptr noundef nonnull align 8 dereferenceable(8) %8)
  call void @_ZN2cv10softdoubleC2ERKS0_(ptr noundef nonnull align 8 dereferenceable(8) %6, ptr noundef nonnull align 8 dereferenceable(8) %7)
  %9 = call noundef zeroext i1 @_ZN2cvL6f64_ltENS_10softdoubleES0_(ptr noundef %5, ptr noundef %6)
  ret i1 %9
}